; ModuleID = 'bench/libigl/original/example_fun.ll'
source_filename = "bench/libigl/original/example_fun.ll"
target datalayout = "e-m:e-p270:32:32-p271:32:32-p272:64:64-i64:64-i128:128-f80:128-n8:16:32:64-S128"
target triple = "x86_64-pc-linux-gnu"

module asm ".globl _ZSt21ios_base_library_initv"

%"class.std::basic_ostream" = type { ptr, %"class.std::basic_ios" }
%"class.std::basic_ios" = type { %"class.std::ios_base", ptr, i8, i8, ptr, ptr, ptr, ptr }
%"class.std::ios_base" = type { ptr, i64, i64, i32, i32, i32, ptr, %"struct.std::ios_base::_Words", [8 x %"struct.std::ios_base::_Words"], i32, ptr, %"class.std::locale" }
%"struct.std::ios_base::_Words" = type { ptr, i64 }
%"class.std::locale" = type { ptr }

$_ZN3igl11example_funIdEEbRKT_ = comdat any

$_ZN3igl11example_funIiEEbRKT_ = comdat any

@_ZSt4cout = external global %"class.std::basic_ostream", align 8
@.str = private unnamed_addr constant [14 x i8] c"example_fun: \00", align 1

; Function Attrs: mustprogress uwtable
define weak_odr dso_local noundef zeroext i1 @_ZN3igl11example_funIdEEbRKT_(ptr noundef nonnull align 8 dereferenceable(8) %0) local_unnamed_addr #0 comdat {
  %2 = tail call noundef nonnull align 8 dereferenceable(8) ptr @_ZSt16__ostream_insertIcSt11char_traitsIcEERSt13basic_ostreamIT_T0_ES6_PKS3_l(ptr noundef nonnull align 8 dereferenceable(8) @_ZSt4cout, ptr noundef nonnull @.str, i64 noundef 13)
  %3 = load double, ptr %0, align 8, !tbaa !4
  %4 = tail call noundef nonnull align 8 dereferenceable(8) ptr @_ZNSo9_M_insertIdEERSoT_(ptr noundef nonnull align 8 dereferenceable(8) @_ZSt4cout, double noundef %3)
  %5 = load ptr, ptr %4, align 8, !tbaa !8
  %6 = getelementptr i8, ptr %5, i64 -24
  %7 = load i64, ptr %6, align 8
  %8 = getelementptr inbounds i8, ptr %4, i64 %7
  %9 = getelementptr inbounds nuw i8, ptr %8, i64 240
  %10 = load ptr, ptr %9, align 8, !tbaa !10
  %.not.i.i.i = icmp eq ptr %10, null
  br i1 %.not.i.i.i, label %11, label %_ZSt13__check_facetISt5ctypeIcEERKT_PS3_.exit.i.i

11:                                               ; preds = %1
  tail call void @_ZSt16__throw_bad_castv() #3
  unreachable

_ZSt13__check_facetISt5ctypeIcEERKT_PS3_.exit.i.i: ; preds = %1
  %12 = getelementptr inbounds nuw i8, ptr %10, i64 56
  %13 = load i8, ptr %12, align 8, !tbaa !29
  %.not.i1.i.i = icmp eq i8 %13, 0
  br i1 %.not.i1.i.i, label %17, label %14

14:                                               ; preds = %_ZSt13__check_facetISt5ctypeIcEERKT_PS3_.exit.i.i
  %15 = getelementptr inbounds nuw i8, ptr %10, i64 67
  %16 = load i8, ptr %15, align 1, !tbaa !35
  br label %_ZSt4endlIcSt11char_traitsIcEERSt13basic_ostreamIT_T0_ES6_.exit

17:                                               ; preds = %_ZSt13__check_facetISt5ctypeIcEERKT_PS3_.exit.i.i
  tail call void @_ZNKSt5ctypeIcE13_M_widen_initEv(ptr noundef nonnull align 8 dereferenceable(570) %10)
  %18 = load ptr, ptr %10, align 8, !tbaa !8
  %19 = getelementptr inbounds nuw i8, ptr %18, i64 48
  %20 = load ptr, ptr %19, align 8
  %21 = tail call noundef signext i8 %20(ptr noundef nonnull align 8 dereferenceable(570) %10, i8 noundef signext 10)
  br label %_ZSt4endlIcSt11char_traitsIcEERSt13basic_ostreamIT_T0_ES6_.exit

_ZSt4endlIcSt11char_traitsIcEERSt13basic_ostreamIT_T0_ES6_.exit: ; preds = %14, %17
  %.0.i.i.i = phi i8 [ %16, %14 ], [ %21, %17 ]
  %22 = tail call noundef nonnull align 8 dereferenceable(8) ptr @_ZNSo3putEc(ptr noundef nonnull align 8 dereferenceable(8) %4, i8 noundef signext %.0.i.i.i)
  %23 = tail call noundef nonnull align 8 dereferenceable(8) ptr @_ZNSo5flushEv(ptr noundef nonnull align 8 dereferenceable(8) %22)
  ret i1 true
}

; Function Attrs: mustprogress uwtable
define weak_odr dso_local noundef zeroext i1 @_ZN3igl11example_funIiEEbRKT_(ptr noundef nonnull align 4 dereferenceable(4) %0) local_unnamed_addr #0 comdat {
  %2 = tail call noundef nonnull align 8 dereferenceable(8) ptr @_ZSt16__ostream_insertIcSt11char_traitsIcEERSt13basic_ostreamIT_T0_ES6_PKS3_l(ptr noundef nonnull align 8 dereferenceable(8) @_ZSt4cout, ptr noundef nonnull @.str, i64 noundef 13)
  %3 = load i32, ptr %0, align 4, !tbaa !36
  %4 = tail call noundef nonnull align 8 dereferenceable(8) ptr @_ZNSolsEi(ptr noundef nonnull align 8 dereferenceable(8) @_ZSt4cout, i32 noundef %3)
  %5 = load ptr, ptr %4, align 8, !tbaa !8
  %6 = getelementptr i8, ptr %5, i64 -24
  %7 = load i64, ptr %6, align 8
  %8 = getelementptr inbounds i8, ptr %4, i64 %7
  %9 = getelementptr inbounds nuw i8, ptr %8, i64 240
  %10 = load ptr, ptr %9, align 8, !tbaa !10
  %.not.i.i.i = icmp eq ptr %10, null
  br i1 %.not.i.i.i, label %11, label %_ZSt13__check_facetISt5ctypeIcEERKT_PS3_.exit.i.i

11:                                               ; preds = %1
  tail call void @_ZSt16__throw_bad_castv() #3
  unreachable

_ZSt13__check_facetISt5ctypeIcEERKT_PS3_.exit.i.i: ; preds = %1
  %12 = getelementptr inbounds nuw i8, ptr %10, i64 56
  %13 = load i8, ptr %12, align 8, !tbaa !29
  %.not.i1.i.i = icmp eq i8 %13, 0
  br i1 %.not.i1.i.i, label %17, label %14

14:                                               ; preds = %_ZSt13__check_facetISt5ctypeIcEERKT_PS3_.exit.i.i
  %15 = getelementptr inbounds nuw i8, ptr %10, i64 67
  %16 = load i8, ptr %15, align 1, !tbaa !35
  br label %_ZSt4endlIcSt11char_traitsIcEERSt13basic_ostreamIT_T0_ES6_.exit

17:                                               ; preds = %_ZSt13__check_facetISt5ctypeIcEERKT_PS3_.exit.i.i
  tail call void @_ZNKSt5ctypeIcE13_M_widen_initEv(ptr noundef nonnull align 8 dereferenceable(570) %10)
  %18 = load ptr, ptr %10, align 8, !tbaa !8
  %19 = getelementptr inbounds nuw i8, ptr %18, i64 48
  %20 = load ptr, ptr %19, align 8
  %21 = tail call noundef signext i8 %20(ptr noundef nonnull align 8 dereferenceable(570) %10, i8 noundef signext 10)
  br label %_ZSt4endlIcSt11char_traitsIcEERSt13basic_ostreamIT_T0_ES6_.exit

_ZSt4endlIcSt11char_traitsIcEERSt13basic_ostreamIT_T0_ES6_.exit: ; preds = %14, %17
  %.0.i.i.i = phi i8 [ %16, %14 ], [ %21, %17 ]
  %22 = tail call noundef nonnull align 8 dereferenceable(8) ptr @_ZNSo3putEc(ptr noundef nonnull align 8 dereferenceable(8) %4, i8 noundef signext %.0.i.i.i)
  %23 = tail call noundef nonnull align 8 dereferenceable(8) ptr @_ZNSo5flushEv(ptr noundef nonnull align 8 dereferenceable(8) %22)
  ret i1 true
}

declare noundef nonnull align 8 dereferenceable(8) ptr @_ZNSolsEi(ptr noundef nonnull align 8 dereferenceable(8), i32 noundef) local_unnamed_addr #1

declare noundef nonnull align 8 dereferenceable(8) ptr @_ZSt16__ostream_insertIcSt11char_traitsIcEERSt13basic_ostreamIT_T0_ES6_PKS3_l(ptr noundef nonnull align 8 dereferenceable(8), ptr noundef, i64 noundef) local_unnamed_addr #1

declare noundef nonnull align 8 dereferenceable(8) ptr @_ZNSo9_M_insertIdEERSoT_(ptr noundef nonnull align 8 dereferenceable(8), double noundef) local_unnamed_addr #1

declare noundef nonnull align 8 dereferenceable(8) ptr @_ZNSo3putEc(ptr noundef nonnull align 8 dereferenceable(8), i8 noundef signext) local_unnamed_addr #1

declare noundef nonnull align 8 dereferenceable(8) ptr @_ZNSo5flushEv(ptr noundef nonnull align 8 dereferenceable(8)) local_unnamed_addr #1

; Function Attrs: noreturn
declare void @_ZSt16__throw_bad_castv() local_unnamed_addr #2

declare void @_ZNKSt5ctypeIcE13_M_widen_initEv(ptr noundef nonnull align 8 dereferenceable(570)) local_unnamed_addr #1


!llvm.module.flags = !{!0, !1, !2, !3}

!0 = !{i32 1, !"wchar_size", i32 4}
!1 = !{i32 8, !"PIC Level", i32 2}
!2 = !{i32 7, !"PIE Level", i32 2}
!3 = !{i32 7, !"uwtable", i32 2}
!4 = !{!5, !5, i64 0}
!5 = !{!"double", !6, i64 0}
!6 = !{!"omnipotent char", !7, i64 0}
!7 = !{!"Simple C++ TBAA"}
!8 = !{!9, !9, i64 0}
!9 = !{!"vtable pointer", !7, i64 0}
!10 = !{!11, !26, i64 240}
!11 = !{!"_ZTSSt9basic_iosIcSt11char_traitsIcEE", !12, i64 0, !23, i64 216, !6, i64 224, !24, i64 225, !25, i64 232, !26, i64 240, !27, i64 248, !28, i64 256}
!12 = !{!"_ZTSSt8ios_base", !13, i64 8, !13, i64 16, !14, i64 24, !15, i64 28, !15, i64 32, !16, i64 40, !18, i64 48, !6, i64 64, !19, i64 192, !20, i64 200, !21, i64 208}
!13 = !{!"long", !6, i64 0}
!14 = !{!"_ZTSSt13_Ios_Fmtflags", !6, i64 0}
!15 = !{!"_ZTSSt12_Ios_Iostate", !6, i64 0}
!16 = !{!"p1 _ZTSNSt8ios_base14_Callback_listE", !17, i64 0}
!17 = !{!"any pointer", !6, i64 0}
!18 = !{!"_ZTSNSt8ios_base6_WordsE", !17, i64 0, !13, i64 8}
!19 = !{!"int", !6, i64 0}
!20 = !{!"p1 _ZTSNSt8ios_base6_WordsE", !17, i64 0}
!21 = !{!"_ZTSSt6locale", !22, i64 0}
!22 = !{!"p1 _ZTSNSt6locale5_ImplE", !17, i64 0}
!23 = !{!"p1 _ZTSSo", !17, i64 0}
!24 = !{!"bool", !6, i64 0}
!25 = !{!"p1 _ZTSSt15basic_streambufIcSt11char_traitsIcEE", !17, i64 0}
!26 = !{!"p1 _ZTSSt5ctypeIcE", !17, i64 0}
!27 = !{!"p1 _ZTSSt7num_putIcSt19ostreambuf_iteratorIcSt11char_traitsIcEEE", !17, i64 0}
!28 = !{!"p1 _ZTSSt7num_getIcSt19istreambuf_iteratorIcSt11char_traitsIcEEE", !17, i64 0}
!29 = !{!30, !6, i64 56}
!30 = !{!"_ZTSSt5ctypeIcE", !31, i64 0, !32, i64 16, !24, i64 24, !33, i64 32, !33, i64 40, !34, i64 48, !6, i64 56, !6, i64 57, !6, i64 313, !6, i64 569}
!31 = !{!"_ZTSNSt6locale5facetE", !19, i64 8}
!32 = !{!"p1 _ZTS15__locale_struct", !17, i64 0}
!33 = !{!"p1 int", !17, i64 0}
!34 = !{!"p1 short", !17, i64 0}
!35 = !{!6, !6, i64 0}
!36 = !{!19, !19, i64 0}
